target datalayout = "e-m:e-p270:32:32-p271:32:32-p272:64:64-i64:64-i128:128-f80:128-n8:16:32:64-S128"
target triple = "x86_64-pc-linux-gnu"

@_ZN4leanL11g_heartbeatE = internal thread_local(localexec) global i64 0, align 8
@_ZN4leanL15g_max_heartbeatE = internal thread_local(localexec) global i64 0, align 8

; Function Attrs: mustprogress nounwind uwtable
define void @_ZN4lean13inc_heartbeatEv() #0 {
  %1 = call align 8 ptr @llvm.threadlocal.address.p0(ptr align 8 @_ZN4leanL11g_heartbeatE)
  %2 = load i64, ptr %1, align 8, !tbaa !3
  %3 = add i64 %2, 1
  store i64 %3, ptr %1, align 8, !tbaa !3
  ret void
}

; Function Attrs: mustprogress uwtable
define void @_ZN4lean15check_heartbeatEv() #2 {
  call void @_ZN4lean13inc_heartbeatEv()
  %1 = call align 8 ptr @llvm.threadlocal.address.p0(ptr align 8 @_ZN4leanL15g_max_heartbeatE)
  %2 = load i64, ptr %1, align 8, !tbaa !3
  %3 = icmp ugt i64 %2, 0
  br i1 %3, label %4, label %11

4:                                                ; preds = %0
  %5 = call align 8 ptr @llvm.threadlocal.address.p0(ptr align 8 @_ZN4leanL11g_heartbeatE)
  %6 = load i64, ptr %5, align 8, !tbaa !3
  %7 = call align 8 ptr @llvm.threadlocal.address.p0(ptr align 8 @_ZN4leanL15g_max_heartbeatE)
  %8 = load i64, ptr %7, align 8, !tbaa !3
  %9 = icmp ugt i64 %6, %8
  br i1 %9, label %10, label %11

10:                                               ; preds = %4
  call void @_ZN4lean25throw_heartbeat_exceptionEv()
  br label %11

11:                                               ; preds = %10, %4, %0
  ret void
}

; Function Attrs: mustprogress uwtable
define void @_ZN4lean12check_systemEPKcb(ptr noundef %0, i1 noundef zeroext %1) #2 {
  %3 = alloca ptr, align 8
  %4 = alloca i8, align 1
  store ptr %0, ptr %3, align 8, !tbaa !41
  %5 = zext i1 %1 to i8
  store i8 %5, ptr %4, align 1, !tbaa !35
  %6 = load ptr, ptr %3, align 8, !tbaa !41
  call void @_ZN4lean11check_stackEPKc(ptr noundef %6)
  %7 = load ptr, ptr %3, align 8, !tbaa !41
  call void @_ZN4lean12check_memoryEPKc(ptr noundef %7)
  %8 = load i8, ptr %4, align 1, !tbaa !35, !range !37, !noundef !38
  %9 = trunc i8 %8 to i1
  br i1 %9, label %10, label %11

10:                                               ; preds = %2
  call void @_ZN4lean17check_interruptedEv()
  call void @_ZN4lean15check_heartbeatEv()
  br label %11

11:                                               ; preds = %10, %2
  ret void
}