; Function Attrs: mustprogress uwtable
define void @_ZN4lean12check_systemEPKcb(ptr noundef %0, i1 noundef zeroext %1) local_unnamed_addr #7 {
  tail call void @_ZN4lean11check_stackEPKc(ptr noundef %0)
  tail call void @_ZN4lean12check_memoryEPKc(ptr noundef %0)
  br i1 %1, label %3, label %_ZN4lean15check_heartbeatEv.exit

3:                                                ; preds = %2
  tail call void @_ZN4lean17check_interruptedEv()
  %4 = tail call align 8 ptr @llvm.threadlocal.address.p0(ptr align 8 @_ZN4leanL11g_heartbeatE)
  %5 = load i64, ptr %4, align 8, !tbaa !3
  %6 = add i64 %5, 1
  store i64 %6, ptr %4, align 8, !tbaa !3
  %7 = tail call align 8 ptr @llvm.threadlocal.address.p0(ptr align 8 @_ZN4leanL15g_max_heartbeatE)
  %8 = load i64, ptr %7, align 8, !tbaa !3
  %.not.i = icmp ne i64 %8, 0
  %9 = icmp ugt i64 %6, %8
  %or.cond.i = select i1 %.not.i, i1 %9, i1 false
  br i1 %or.cond.i, label %10, label %_ZN4lean15check_heartbeatEv.exit

10:                                               ; preds = %3
  tail call void @_ZN4lean25throw_heartbeat_exceptionEv()
  unreachable

_ZN4lean15check_heartbeatEv.exit:                 ; preds = %3, %2
  ret void
}